target datalayout = "e-m:e-p270:32:32-p271:32:32-p272:64:64-i64:64-i128:128-f80:128-n8:16:32:64-S128"
target triple = "x86_64-pc-linux-gnu"

%struct.ImVec2 = type { float, float }
%struct.ImGuiStyle = type { float, float, %struct.ImVec2, float, float, float, %struct.ImVec2, %struct.ImVec2, i32, float, float, float, float, %struct.ImVec2, float, float, %struct.ImVec2, %struct.ImVec2, %struct.ImVec2, %struct.ImVec2, float, float, float, float, float, float, float, float, float, float, float, float, float, float, %struct.ImVec2, i32, %struct.ImVec2, %struct.ImVec2, float, %struct.ImVec2, %struct.ImVec2, %struct.ImVec2, %struct.ImVec2, float, i8, i8, i8, float, float, [56 x %struct.ImVec4], float, float, float, i32, i32 }
%struct.ImVec4 = type { float, float, float, float }
%struct.ImGuiIO = type { i32, i32, %struct.ImVec2, float, float, ptr, ptr, ptr, ptr, float, i8, ptr, %struct.ImVec2, i8, i8, i8, i8, i8, i8, i8, i8, i8, i8, i8, i8, i8, i8, i8, i8, i8, float, float, float, float, float, float, i8, i8, i8, i8, i8, i8, i8, i8, i8, i8, ptr, ptr, ptr, ptr, ptr, i8, i8, i8, i8, i8, i8, i8, float, i32, i32, i32, i32, %struct.ImVec2, ptr, %struct.ImVec2, [5 x i8], float, float, i32, i8, i8, i8, i8, i32, [154 x %struct.ImGuiKeyData], i8, %struct.ImVec2, [5 x %struct.ImVec2], [5 x double], [5 x i8], [5 x i8], [5 x i16], [5 x i16], [5 x i8], [5 x double], [5 x i8], [5 x i8], i8, i8, [5 x float], [5 x float], [5 x float], float, i8, i8, i16, %struct.ImVector, ptr, ptr, ptr }
%struct.ImGuiKeyData = type { i8, float, float, float }
%struct.ImVector = type { i32, i32, ptr }
%struct.ImGuiContext = type { i8, i8, %struct.ImGuiIO, %struct.ImGuiPlatformIO, %struct.ImGuiStyle, ptr, float, float, float, float, %struct.ImDrawListSharedData, double, i32, i32, i32, i32, i8, i8, i8, i8, ptr, [16 x i8], %struct.ImVector.1, %struct.ImVector.1, i32, i32, %struct.ImVector.2, %struct.ImVector.2, %struct.ImVector.2, %struct.ImVector.3, %struct.ImGuiStorage, i32, float, i32, ptr, ptr, ptr, ptr, ptr, ptr, %struct.ImVec2, i32, i32, float, %struct.ImVec2, %struct.ImVec2, i32, i32, i32, i32, i32, float, float, i8, i8, i8, i32, i32, float, i8, i8, i8, i8, i8, i8, i8, i8, %struct.ImVec2, ptr, i32, i32, %struct.ImGuiDeactivatedItemData, %struct.ImGuiDataTypeStorage, i32, float, double, double, double, %struct.ImBitArray, [154 x %struct.ImGuiKeyOwnerData], %struct.ImGuiKeyRoutingTable, i32, i8, i32, i32, i32, i32, %struct.ImGuiNextItemData, %struct.ImGuiLastItemData, %struct.ImGuiNextWindowData, i8, i32, %struct.ImVector.6, %struct.ImVector.7, %struct.ImVector.8, %struct.ImVector.9, %struct.ImVector.10, %struct.ImVector.11, %struct.ImVector.12, %struct.ImVector.12, %struct.ImVector.13, %struct.ImVector.14, i8, i8, i8, i8, i32, ptr, i32, i32, i32, i32, i32, i32, %struct.ImVector.9, i32, float, i32, i32, i32, i64, i8, i8, i8, i8, %struct.ImGuiNavItemData, i8, i8, i8, i32, i32, i32, i32, i32, i32, %struct.ImRect, %struct.ImRect, i32, i32, i32, %struct.ImGuiNavItemData, %struct.ImGuiNavItemData, %struct.ImGuiNavItemData, %struct.ImGuiNavItemData, i32, i32, i32, i32, i8, i8, i32, i32, ptr, ptr, ptr, float, float, i8, i32, %struct.ImVec2, %struct.ImVec2, float, i8, i8, i8, i32, i32, i32, [4 x i8], %struct.ImGuiPayload, %struct.ImRect, %struct.ImRect, i32, i32, float, i32, i32, i32, i32, %struct.ImVector.15, [16 x i8], i32, %struct.ImVector.16, ptr, i32, i32, %struct.ImVector.17, %struct.ImPool, %struct.ImVector.19, %struct.ImVector.20, ptr, %struct.ImPool.21, %struct.ImVector.23, %struct.ImVector.24, %struct.ImGuiBoxSelectState, ptr, i32, %struct.ImVector.25, %struct.ImPool.26, i32, i32, float, float, i32, i32, i32, float, %struct.ImVec2, %struct.ImGuiInputTextState, %struct.ImGuiInputTextDeactivatedState, %struct.ImFont, i32, %struct.ImGuiDataTypeStorage, i32, i32, i32, i32, i32, float, float, i32, %struct.ImVec4, %struct.ImGuiComboPreviewData, %struct.ImRect, i8, i16, float, float, float, i8, i8, float, float, float, i16, i16, ptr, %struct.ImVector.28, %struct.ImVector.30, %struct.ImGuiTypingSelectState, %struct.ImGuiPlatformImeData, %struct.ImGuiPlatformImeData, i8, float, %struct.ImGuiTextBuffer, %struct.ImVector.31, %struct.ImChunkStream, %struct.ImChunkStream.32, %struct.ImVector.33, i32, [10 x ptr], i8, i32, ptr, ptr, %struct.ImGuiTextBuffer, ptr, ptr, float, i8, i32, i32, i32, ptr, ptr, %struct.ImVec2, i8, i32, %struct.ImGuiErrorRecoveryState, ptr, i32, i32, %struct.ImGuiTextBuffer, %struct.ImGuiTextIndex, i32, i32, i8, i8, i8, i32, i8, i8, i8, i32, float, %struct.ImVec4, %struct.ImGuiMetricsConfig, %struct.ImGuiIDStackTool, %struct.ImGuiDebugAllocInfo, [60 x float], i32, i32, float, i32, i32, i32, %struct.ImVector.28, [64 x i8] }
%struct.ImGuiPlatformIO = type { ptr, ptr, ptr, ptr, ptr, ptr, ptr, i16, ptr }
%struct.ImDrawListSharedData = type <{ %struct.ImVec2, ptr, ptr, float, float, float, float, float, i32, %struct.ImVec4, %struct.ImVector.0, [48 x %struct.ImVec2], float, [64 x i8], [4 x i8] }>
%struct.ImVector.0 = type { i32, i32, ptr }
%struct.ImVector.1 = type { i32, i32, ptr }
%struct.ImVector.2 = type { i32, i32, ptr }
%struct.ImVector.3 = type { i32, i32, ptr }
%struct.ImGuiStorage = type { %struct.ImVector.4 }
%struct.ImVector.4 = type { i32, i32, ptr }
%struct.ImGuiDeactivatedItemData = type { i32, i32, i8, i8 }
%struct.ImBitArray = type { [5 x i32] }
%struct.ImGuiKeyOwnerData = type <{ i32, i32, i8, i8, [2 x i8] }>
%struct.ImGuiKeyRoutingTable = type { [154 x i16], %struct.ImVector.5, %struct.ImVector.5 }
%struct.ImVector.5 = type { i32, i32, ptr }
%struct.ImGuiNextItemData = type <{ i32, i32, i32, [4 x i8], i64, float, i32, i32, i8, i8, %struct.ImGuiDataTypeStorage, [2 x i8], i32, [4 x i8] }>
%struct.ImGuiLastItemData = type { i32, i32, i32, %struct.ImRect, %struct.ImRect, %struct.ImRect, %struct.ImRect, i32 }
%struct.ImGuiNextWindowData = type { i32, i32, i32, i32, %struct.ImVec2, %struct.ImVec2, %struct.ImVec2, %struct.ImVec2, %struct.ImVec2, i32, i32, i8, %struct.ImRect, ptr, ptr, float, %struct.ImVec2, i32 }
%struct.ImVector.6 = type { i32, i32, ptr }
%struct.ImVector.7 = type { i32, i32, ptr }
%struct.ImVector.8 = type { i32, i32, ptr }
%struct.ImVector.10 = type { i32, i32, ptr }
%struct.ImVector.11 = type { i32, i32, ptr }
%struct.ImVector.12 = type { i32, i32, ptr }
%struct.ImVector.13 = type { i32, i32, ptr }
%struct.ImVector.14 = type { i32, i32, ptr }
%struct.ImVector.9 = type { i32, i32, ptr }
%struct.ImGuiNavItemData = type { ptr, i32, i32, %struct.ImRect, i32, float, float, float, i64 }
%struct.ImGuiPayload = type <{ ptr, i32, i32, i32, i32, [33 x i8], i8, i8, [5 x i8] }>
%struct.ImVector.15 = type { i32, i32, ptr }
%struct.ImVector.16 = type { i32, i32, ptr }
%struct.ImVector.17 = type { i32, i32, ptr }
%struct.ImPool = type { %struct.ImVector.18, %struct.ImGuiStorage, i32, i32 }
%struct.ImVector.18 = type { i32, i32, ptr }
%struct.ImVector.19 = type { i32, i32, ptr }
%struct.ImVector.20 = type { i32, i32, ptr }
%struct.ImPool.21 = type { %struct.ImVector.22, %struct.ImGuiStorage, i32, i32 }
%struct.ImVector.22 = type { i32, i32, ptr }
%struct.ImVector.23 = type { i32, i32, ptr }
%struct.ImVector.24 = type { i32, i32, ptr }
%struct.ImGuiBoxSelectState = type <{ i32, i8, i8, i8, i8, i8, i16, i8, %struct.ImVec2, %struct.ImVec2, %struct.ImVec2, [4 x i8], ptr, i8, [3 x i8], %struct.ImRect, %struct.ImRect, %struct.ImRect, [4 x i8] }>
%struct.ImVector.25 = type { i32, i32, ptr }
%struct.ImPool.26 = type { %struct.ImVector.27, %struct.ImGuiStorage, i32, i32 }
%struct.ImVector.27 = type { i32, i32, ptr }
%struct.ImGuiInputTextState = type <{ ptr, ptr, i32, i32, i32, [4 x i8], ptr, %struct.ImVector.28, %struct.ImVector.28, %struct.ImVector.28, i32, %struct.ImVec2, float, i8, i8, i8, i8, i32, i32, [4 x i8] }>
%struct.ImGuiInputTextDeactivatedState = type { i32, %struct.ImVector.28 }
%struct.ImFont = type <{ %struct.ImVector.19, float, float, %struct.ImVector, %struct.ImVector.29, ptr, ptr, ptr, i16, i16, i16, i16, float, float, float, float, float, i32, i8, [1 x i8], [6 x i8] }>
%struct.ImVector.29 = type { i32, i32, ptr }
%struct.ImGuiDataTypeStorage = type { [8 x i8] }
%struct.ImGuiComboPreviewData = type { %struct.ImRect, %struct.ImVec2, %struct.ImVec2, %struct.ImVec2, float, i32 }
%struct.ImRect = type { %struct.ImVec2, %struct.ImVec2 }
%struct.ImVector.30 = type { i32, i32, ptr }
%struct.ImGuiTypingSelectState = type <{ %struct.ImGuiTypingSelectRequest, [64 x i8], i32, i32, float, i8, [3 x i8] }>
%struct.ImGuiTypingSelectRequest = type { i32, i32, ptr, i8, i8, i8 }
%struct.ImGuiPlatformImeData = type { i8, %struct.ImVec2, float }
%struct.ImVector.31 = type { i32, i32, ptr }
%struct.ImChunkStream = type { %struct.ImVector.28 }
%struct.ImChunkStream.32 = type { %struct.ImVector.28 }
%struct.ImVector.33 = type { i32, i32, ptr }
%struct.ImGuiErrorRecoveryState = type { i16, i16, i16, i16, i16, i16, i16, i16, i16, i16, i16 }
%struct.ImGuiTextBuffer = type { %struct.ImVector.28 }
%struct.ImGuiTextIndex = type <{ %struct.ImVector.10, i32, [4 x i8] }>
%struct.ImGuiMetricsConfig = type { i8, i8, i8, i8, i8, i8, i8, i8, i8, i32, i32, i32, i32 }
%struct.ImGuiIDStackTool = type { i32, i32, i32, %struct.ImVector.34, i8, float }
%struct.ImVector.34 = type { i32, i32, ptr }
%struct.ImGuiDebugAllocInfo = type { i32, i32, i16, [6 x %struct.ImGuiDebugAllocEntry] }
%struct.ImGuiDebugAllocEntry = type { i32, i16, i16 }
%struct.ImVector.28 = type { i32, i32, ptr }

@GImGui = global ptr null, align 8

; Function Attrs: mustprogress nounwind uwtable
define void @_ZN5ImGui22GetTypematicRepeatRateEiPfS0_(i32 noundef %0, ptr noundef %1, ptr noundef %2) #1 {
  %4 = alloca i32, align 4
  %5 = alloca ptr, align 8
  %6 = alloca ptr, align 8
  %7 = alloca ptr, align 8
  %8 = alloca i32, align 4
  store i32 %0, ptr %4, align 4, !tbaa !125
  store ptr %1, ptr %5, align 8, !tbaa !295
  store ptr %2, ptr %6, align 8, !tbaa !295
  call void @llvm.lifetime.start.p0(i64 8, ptr %7) #16
  %9 = load ptr, ptr @GImGui, align 8, !tbaa !139
  store ptr %9, ptr %7, align 8, !tbaa !139
  %10 = load i32, ptr %4, align 4, !tbaa !125
  %11 = and i32 %10, 14
  switch i32 %11, label %39 [
    i32 4, label %12
    i32 8, label %25
    i32 2, label %38
  ]

12:                                               ; preds = %3
  %13 = load ptr, ptr %7, align 8, !tbaa !139
  %14 = getelementptr inbounds nuw %struct.ImGuiContext, ptr %13, i32 0, i32 2
  %15 = getelementptr inbounds nuw %struct.ImGuiIO, ptr %14, i32 0, i32 34
  %16 = load float, ptr %15, align 4, !tbaa !1486
  %17 = fmul float %16, 0x3FE70A3D80000000
  %18 = load ptr, ptr %5, align 8, !tbaa !295
  store float %17, ptr %18, align 4, !tbaa !17
  %19 = load ptr, ptr %7, align 8, !tbaa !139
  %20 = getelementptr inbounds nuw %struct.ImGuiContext, ptr %19, i32 0, i32 2
  %21 = getelementptr inbounds nuw %struct.ImGuiIO, ptr %20, i32 0, i32 35
  %22 = load float, ptr %21, align 8, !tbaa !1487
  %23 = fmul float %22, 0x3FE99999A0000000
  %24 = load ptr, ptr %6, align 8, !tbaa !295
  store float %23, ptr %24, align 4, !tbaa !17
  store i32 1, ptr %8, align 4
  br label %52

25:                                               ; preds = %3
  %26 = load ptr, ptr %7, align 8, !tbaa !139
  %27 = getelementptr inbounds nuw %struct.ImGuiContext, ptr %26, i32 0, i32 2
  %28 = getelementptr inbounds nuw %struct.ImGuiIO, ptr %27, i32 0, i32 34
  %29 = load float, ptr %28, align 4, !tbaa !1486
  %30 = fmul float %29, 0x3FE70A3D80000000
  %31 = load ptr, ptr %5, align 8, !tbaa !295
  store float %30, ptr %31, align 4, !tbaa !17
  %32 = load ptr, ptr %7, align 8, !tbaa !139
  %33 = getelementptr inbounds nuw %struct.ImGuiContext, ptr %32, i32 0, i32 2
  %34 = getelementptr inbounds nuw %struct.ImGuiIO, ptr %33, i32 0, i32 35
  %35 = load float, ptr %34, align 8, !tbaa !1487
  %36 = fmul float %35, 0x3FD3333340000000
  %37 = load ptr, ptr %6, align 8, !tbaa !295
  store float %36, ptr %37, align 4, !tbaa !17
  store i32 1, ptr %8, align 4
  br label %52

38:                                               ; preds = %3
  br label %39

39:                                               ; preds = %3, %38
  %40 = load ptr, ptr %7, align 8, !tbaa !139
  %41 = getelementptr inbounds nuw %struct.ImGuiContext, ptr %40, i32 0, i32 2
  %42 = getelementptr inbounds nuw %struct.ImGuiIO, ptr %41, i32 0, i32 34
  %43 = load float, ptr %42, align 4, !tbaa !1486
  %44 = fmul float %43, 1.000000e+00
  %45 = load ptr, ptr %5, align 8, !tbaa !295
  store float %44, ptr %45, align 4, !tbaa !17
  %46 = load ptr, ptr %7, align 8, !tbaa !139
  %47 = getelementptr inbounds nuw %struct.ImGuiContext, ptr %46, i32 0, i32 2
  %48 = getelementptr inbounds nuw %struct.ImGuiIO, ptr %47, i32 0, i32 35
  %49 = load float, ptr %48, align 8, !tbaa !1487
  %50 = fmul float %49, 1.000000e+00
  %51 = load ptr, ptr %6, align 8, !tbaa !295
  store float %50, ptr %51, align 4, !tbaa !17
  store i32 1, ptr %8, align 4
  br label %52

52:                                               ; preds = %39, %25, %12
  call void @llvm.lifetime.end.p0(i64 8, ptr %7) #16
  ret void
}