; Function Attrs: mustprogress nofree norecurse nosync nounwind willreturn memory(read, argmem: readwrite, inaccessiblemem: none) uwtable
define void @_ZN5ImGui22GetTypematicRepeatRateEiPfS0_(i32 noundef %0, ptr noundef writeonly captures(none) initializes((0, 4)) %1, ptr noundef writeonly captures(none) initializes((0, 4)) %2) local_unnamed_addr #47 {
  %4 = load ptr, ptr @GImGui, align 8, !tbaa !216
  %5 = and i32 %0, 14
  %6 = getelementptr inbounds nuw i8, ptr %4, i64 124
  %7 = load float, ptr %6, align 4, !tbaa !953
  switch i32 %5, label %18 [
    i32 4, label %8
    i32 8, label %13
  ]

8:                                                ; preds = %3
  %9 = fmul float %7, 0x3FE70A3D80000000
  store float %9, ptr %1, align 4, !tbaa !87
  %10 = getelementptr inbounds nuw i8, ptr %4, i64 128
  %11 = load float, ptr %10, align 8, !tbaa !954
  %12 = fmul float %11, 0x3FE99999A0000000
  br label %21

13:                                               ; preds = %3
  %14 = fmul float %7, 0x3FE70A3D80000000
  store float %14, ptr %1, align 4, !tbaa !87
  %15 = getelementptr inbounds nuw i8, ptr %4, i64 128
  %16 = load float, ptr %15, align 8, !tbaa !954
  %17 = fmul float %16, 0x3FD3333340000000
  br label %21

18:                                               ; preds = %3
  store float %7, ptr %1, align 4, !tbaa !87
  %19 = getelementptr inbounds nuw i8, ptr %4, i64 128
  %20 = load float, ptr %19, align 8, !tbaa !954
  br label %21

21:                                               ; preds = %18, %13, %8
  %.sink = phi float [ %20, %18 ], [ %17, %13 ], [ %12, %8 ]
  store float %.sink, ptr %2, align 4, !tbaa !87
  ret void
}